target datalayout = "e-m:e-p270:32:32-p271:32:32-p272:64:64-i64:64-i128:128-f80:128-n8:16:32:64-S128"
target triple = "x86_64-unknown-linux-gnu"

%"class.sat::literal" = type { i32 }
%"class.sat::status" = type { i32, i32, ptr }

@_ZN3satL12null_literalE = internal global %"class.sat::literal" zeroinitializer, align 4
@.str = private unnamed_addr constant [2 x i8] c"d\00", align 1
@.str.3 = private unnamed_addr constant [2 x i8] c" \00", align 1
@.str.4 = private unnamed_addr constant [2 x i8] c"\0A\00", align 1
@.str.15 = private unnamed_addr constant [2 x i8] c"-\00", align 1
@.str.24 = private unnamed_addr constant [5 x i8] c"null\00", align 1
@.str.25 = private unnamed_addr constant [1 x i8] zeroinitializer, align 1

; Function Attrs: mustprogress nounwind uwtable
define linkonce_odr hidden noundef i32 @_ZNK3sat7literal3varEv(ptr noundef nonnull align 4 dereferenceable(4) %this) #4 comdat align 2 {
entry:
  %this.addr = alloca ptr, align 8
  store ptr %this, ptr %this.addr, align 8
  %this1 = load ptr, ptr %this.addr, align 8
  %m_val = getelementptr inbounds %"class.sat::literal", ptr %this1, i32 0, i32 0
  %0 = load i32, ptr %m_val, align 4
  %shr = lshr i32 %0, 1
  ret i32 %shr
}

; Function Attrs: mustprogress nounwind uwtable
define linkonce_odr hidden noundef zeroext i1 @_ZNK3sat7literal4signEv(ptr noundef nonnull align 4 dereferenceable(4) %this) #4 comdat align 2 {
entry:
  %this.addr = alloca ptr, align 8
  store ptr %this, ptr %this.addr, align 8
  %this1 = load ptr, ptr %this.addr, align 8
  %m_val = getelementptr inbounds %"class.sat::literal", ptr %this1, i32 0, i32 0
  %0 = load i32, ptr %m_val, align 4
  %conv = zext i32 %0 to i64
  %and = and i64 %conv, 1
  %tobool = icmp ne i64 %and, 0
  ret i1 %tobool
}

; Function Attrs: mustprogress nounwind uwtable
define linkonce_odr hidden noundef zeroext i1 @_ZN3sateqERKNS_7literalES2_(ptr noundef nonnull align 4 dereferenceable(4) %l1, ptr noundef nonnull align 4 dereferenceable(4) %l2) #4 comdat {
entry:
  %l1.addr = alloca ptr, align 8
  %l2.addr = alloca ptr, align 8
  store ptr %l1, ptr %l1.addr, align 8
  store ptr %l2, ptr %l2.addr, align 8
  %0 = load ptr, ptr %l1.addr, align 8
  %m_val = getelementptr inbounds %"class.sat::literal", ptr %0, i32 0, i32 0
  %1 = load i32, ptr %m_val, align 4
  %2 = load ptr, ptr %l2.addr, align 8
  %m_val1 = getelementptr inbounds %"class.sat::literal", ptr %2, i32 0, i32 0
  %3 = load i32, ptr %m_val1, align 4
  %cmp = icmp eq i32 %1, %3
  ret i1 %cmp
}

; Function Attrs: mustprogress nounwind uwtable
define linkonce_odr hidden noundef zeroext i1 @_ZNK3sat6status10is_deletedEv(ptr noundef nonnull align 8 dereferenceable(16) %this) #4 comdat align 2 {
entry:
  %this.addr = alloca ptr, align 8
  store ptr %this, ptr %this.addr, align 8
  %this1 = load ptr, ptr %this.addr, align 8
  %m_st = getelementptr inbounds %"class.sat::status", ptr %this1, i32 0, i32 0
  %0 = load i32, ptr %m_st, align 8
  %cmp = icmp eq i32 3, %0
  ret i1 %cmp
}

; Function Attrs: mustprogress uwtable
define linkonce_odr hidden noundef nonnull align 8 dereferenceable(8) ptr @_ZN3satlsERSoNS_7literalE(ptr noundef nonnull align 8 dereferenceable(8) %out, i32 %l.coerce) #5 comdat {
entry:
  %l = alloca %"class.sat::literal", align 4
  %out.addr = alloca ptr, align 8
  %coerce.dive = getelementptr inbounds %"class.sat::literal", ptr %l, i32 0, i32 0
  store i32 %l.coerce, ptr %coerce.dive, align 4
  store ptr %out, ptr %out.addr, align 8
  %call = call noundef zeroext i1 @_ZN3sateqERKNS_7literalES2_(ptr noundef nonnull align 4 dereferenceable(4) %l, ptr noundef nonnull align 4 dereferenceable(4) @_ZN3satL12null_literalE)
  br i1 %call, label %if.then, label %if.else

if.then:                                          ; preds = %entry
  %0 = load ptr, ptr %out.addr, align 8
  %call1 = call noundef nonnull align 8 dereferenceable(8) ptr @_ZStlsISt11char_traitsIcEERSt13basic_ostreamIcT_ES5_PKc(ptr noundef nonnull align 8 dereferenceable(8) %0, ptr noundef @.str.24)
  br label %if.end

if.else:                                          ; preds = %entry
  %1 = load ptr, ptr %out.addr, align 8
  %call2 = call noundef zeroext i1 @_ZNK3sat7literal4signEv(ptr noundef nonnull align 4 dereferenceable(4) %l)
  %cond = select i1 %call2, ptr @.str.15, ptr @.str.25
  %call3 = call noundef nonnull align 8 dereferenceable(8) ptr @_ZStlsISt11char_traitsIcEERSt13basic_ostreamIcT_ES5_PKc(ptr noundef nonnull align 8 dereferenceable(8) %1, ptr noundef %cond)
  %call4 = call noundef i32 @_ZNK3sat7literal3varEv(ptr noundef nonnull align 4 dereferenceable(4) %l)
  %call5 = call noundef nonnull align 8 dereferenceable(8) ptr @_ZNSolsEj(ptr noundef nonnull align 8 dereferenceable(8) %call3, i32 noundef %call4)
  br label %if.end

if.end:                                           ; preds = %if.else, %if.then
  %2 = load ptr, ptr %out.addr, align 8
  ret ptr %2
}

; Function Attrs: mustprogress nounwind uwtable
define linkonce_odr hidden noundef zeroext i1 @_ZN3satneERKNS_7literalES2_(ptr noundef nonnull align 4 dereferenceable(4) %l1, ptr noundef nonnull align 4 dereferenceable(4) %l2) #4 comdat {
entry:
  %l1.addr = alloca ptr, align 8
  %l2.addr = alloca ptr, align 8
  store ptr %l1, ptr %l1.addr, align 8
  store ptr %l2, ptr %l2.addr, align 8
  %0 = load ptr, ptr %l1.addr, align 8
  %m_val = getelementptr inbounds %"class.sat::literal", ptr %0, i32 0, i32 0
  %1 = load i32, ptr %m_val, align 4
  %2 = load ptr, ptr %l2.addr, align 8
  %m_val1 = getelementptr inbounds %"class.sat::literal", ptr %2, i32 0, i32 0
  %3 = load i32, ptr %m_val1, align 4
  %cmp = icmp ne i32 %1, %3
  ret i1 %cmp
}

; Function Attrs: mustprogress uwtable
define hidden noundef nonnull align 8 dereferenceable(8) ptr @_ZNK3sat4drat2ppERSoNS_6statusE(ptr noundef nonnull align 8 dereferenceable(664) %this, ptr noundef nonnull align 8 dereferenceable(8) %out, ptr noundef %st) #5 align 2 {
entry:
  %this.addr = alloca ptr, align 8
  %out.addr = alloca ptr, align 8
  %st.indirect_addr = alloca ptr, align 8
  store ptr %this, ptr %this.addr, align 8
  store ptr %out, ptr %out.addr, align 8
  store ptr %st, ptr %st.indirect_addr, align 8
  %call = call noundef zeroext i1 @_ZNK3sat6status10is_deletedEv(ptr noundef nonnull align 8 dereferenceable(16) %st)
  br i1 %call, label %if.then, label %if.end

if.then:                                          ; preds = %entry
  %0 = load ptr, ptr %out.addr, align 8
  %call2 = call noundef nonnull align 8 dereferenceable(8) ptr @_ZStlsISt11char_traitsIcEERSt13basic_ostreamIcT_ES5_PKc(ptr noundef nonnull align 8 dereferenceable(8) %0, ptr noundef @.str)
  br label %if.end

if.end:                                           ; preds = %if.then, %entry
  %1 = load ptr, ptr %out.addr, align 8
  ret ptr %1
}

; Function Attrs: mustprogress nounwind uwtable
define linkonce_odr hidden void @_ZN3sat6statusC2ERKS0_(ptr noundef nonnull align 8 dereferenceable(16) %this, ptr noundef nonnull align 8 dereferenceable(16) %s) unnamed_addr #4 comdat align 2 {
entry:
  %this.addr = alloca ptr, align 8
  %s.addr = alloca ptr, align 8
  store ptr %this, ptr %this.addr, align 8
  store ptr %s, ptr %s.addr, align 8
  %this1 = load ptr, ptr %this.addr, align 8
  %m_st = getelementptr inbounds %"class.sat::status", ptr %this1, i32 0, i32 0
  %0 = load ptr, ptr %s.addr, align 8
  %m_st2 = getelementptr inbounds %"class.sat::status", ptr %0, i32 0, i32 0
  %1 = load i32, ptr %m_st2, align 8
  store i32 %1, ptr %m_st, align 8
  %m_orig = getelementptr inbounds %"class.sat::status", ptr %this1, i32 0, i32 1
  %2 = load ptr, ptr %s.addr, align 8
  %m_orig3 = getelementptr inbounds %"class.sat::status", ptr %2, i32 0, i32 1
  %3 = load i32, ptr %m_orig3, align 4
  store i32 %3, ptr %m_orig, align 4
  %m_hint = getelementptr inbounds %"class.sat::status", ptr %this1, i32 0, i32 2
  %4 = load ptr, ptr %s.addr, align 8
  %m_hint4 = getelementptr inbounds %"class.sat::status", ptr %4, i32 0, i32 2
  %5 = load ptr, ptr %m_hint4, align 8
  store ptr %5, ptr %m_hint, align 8
  ret void
}

; Function Attrs: mustprogress uwtable
define hidden void @_ZN3sat4drat5traceERSojPKNS_7literalENS_6statusE(ptr noundef nonnull align 8 dereferenceable(664) %this, ptr noundef nonnull align 8 dereferenceable(8) %out, i32 noundef %n, ptr noundef %c, ptr noundef %st) #5 align 2 {
entry:
  %this.addr = alloca ptr, align 8
  %out.addr = alloca ptr, align 8
  %n.addr = alloca i32, align 4
  %c.addr = alloca ptr, align 8
  %st.indirect_addr = alloca ptr, align 8
  %agg.tmp = alloca %"class.sat::status", align 8
  %last = alloca %"class.sat::literal", align 4
  %i = alloca i32, align 4
  %agg.tmp4 = alloca %"class.sat::literal", align 4
  store ptr %this, ptr %this.addr, align 8
  store ptr %out, ptr %out.addr, align 8
  store i32 %n, ptr %n.addr, align 4
  store ptr %c, ptr %c.addr, align 8
  store ptr %st, ptr %st.indirect_addr, align 8
  %this1 = load ptr, ptr %this.addr, align 8
  %0 = load ptr, ptr %out.addr, align 8
  call void @_ZN3sat6statusC2ERKS0_(ptr noundef nonnull align 8 dereferenceable(16) %agg.tmp, ptr noundef nonnull align 8 dereferenceable(16) %st)
  %call = call noundef nonnull align 8 dereferenceable(8) ptr @_ZNK3sat4drat2ppERSoNS_6statusE(ptr noundef nonnull align 8 dereferenceable(664) %this1, ptr noundef nonnull align 8 dereferenceable(8) %0, ptr noundef %agg.tmp)
  %call2 = call noundef nonnull align 8 dereferenceable(8) ptr @_ZStlsISt11char_traitsIcEERSt13basic_ostreamIcT_ES5_PKc(ptr noundef nonnull align 8 dereferenceable(8) %call, ptr noundef @.str.3)
  call void @llvm.memcpy.p0.p0.i64(ptr align 4 %last, ptr align 4 @_ZN3satL12null_literalE, i64 4, i1 false)
  store i32 0, ptr %i, align 4
  br label %for.cond

for.cond:                                         ; preds = %for.inc, %entry
  %1 = load i32, ptr %i, align 4
  %2 = load i32, ptr %n.addr, align 4
  %cmp = icmp ult i32 %1, %2
  br i1 %cmp, label %for.body, label %for.end

for.body:                                         ; preds = %for.cond
  %3 = load ptr, ptr %c.addr, align 8
  %4 = load i32, ptr %i, align 4
  %idxprom = zext i32 %4 to i64
  %arrayidx = getelementptr inbounds %"class.sat::literal", ptr %3, i64 %idxprom
  %call3 = call noundef zeroext i1 @_ZN3satneERKNS_7literalES2_(ptr noundef nonnull align 4 dereferenceable(4) %arrayidx, ptr noundef nonnull align 4 dereferenceable(4) %last)
  br i1 %call3, label %if.then, label %if.end

if.then:                                          ; preds = %for.body
  %5 = load ptr, ptr %out.addr, align 8
  %6 = load ptr, ptr %c.addr, align 8
  %7 = load i32, ptr %i, align 4
  %idxprom5 = zext i32 %7 to i64
  %arrayidx6 = getelementptr inbounds %"class.sat::literal", ptr %6, i64 %idxprom5
  call void @llvm.memcpy.p0.p0.i64(ptr align 4 %agg.tmp4, ptr align 4 %arrayidx6, i64 4, i1 false)
  %coerce.dive = getelementptr inbounds %"class.sat::literal", ptr %agg.tmp4, i32 0, i32 0
  %8 = load i32, ptr %coerce.dive, align 4
  %call7 = call noundef nonnull align 8 dereferenceable(8) ptr @_ZN3satlsERSoNS_7literalE(ptr noundef nonnull align 8 dereferenceable(8) %5, i32 %8)
  %call8 = call noundef nonnull align 8 dereferenceable(8) ptr @_ZStlsISt11char_traitsIcEERSt13basic_ostreamIcT_ES5_PKc(ptr noundef nonnull align 8 dereferenceable(8) %call7, ptr noundef @.str.3)
  %9 = load ptr, ptr %c.addr, align 8
  %10 = load i32, ptr %i, align 4
  %idxprom9 = zext i32 %10 to i64
  %arrayidx10 = getelementptr inbounds %"class.sat::literal", ptr %9, i64 %idxprom9
  call void @llvm.memcpy.p0.p0.i64(ptr align 4 %last, ptr align 4 %arrayidx10, i64 4, i1 false)
  br label %if.end

if.end:                                           ; preds = %if.then, %for.body
  br label %for.inc

for.inc:                                          ; preds = %if.end
  %11 = load i32, ptr %i, align 4
  %inc = add i32 %11, 1
  store i32 %inc, ptr %i, align 4
  br label %for.cond, !llvm.loop !11

for.end:                                          ; preds = %for.cond
  %12 = load ptr, ptr %out.addr, align 8
  %call11 = call noundef nonnull align 8 dereferenceable(8) ptr @_ZStlsISt11char_traitsIcEERSt13basic_ostreamIcT_ES5_PKc(ptr noundef nonnull align 8 dereferenceable(8) %12, ptr noundef @.str.4)
  ret void
}