; Function Attrs: mustprogress uwtable
define hidden void @_ZN3sat4drat5traceERSojPKNS_7literalENS_6statusE(ptr nocapture nonnull readnone align 8 %this, ptr noundef nonnull align 8 dereferenceable(8) %out, i32 noundef %n, ptr nocapture noundef readonly %c, ptr nocapture noundef readonly %st) local_unnamed_addr #3 align 2 {
entry:
  %0 = load i32, ptr %st, align 8
  %cmp.i.i = icmp eq i32 %0, 3
  br i1 %cmp.i.i, label %if.then.i, label %_ZNK3sat4drat2ppERSoNS_6statusE.exit

if.then.i:                                        ; preds = %entry
  %call2.i = tail call noundef nonnull align 8 dereferenceable(8) ptr @_ZStlsISt11char_traitsIcEERSt13basic_ostreamIcT_ES5_PKc(ptr noundef nonnull align 8 dereferenceable(8) %out, ptr noundef nonnull @.str)
  br label %_ZNK3sat4drat2ppERSoNS_6statusE.exit

_ZNK3sat4drat2ppERSoNS_6statusE.exit:             ; preds = %entry, %if.then.i
  %call2 = tail call noundef nonnull align 8 dereferenceable(8) ptr @_ZStlsISt11char_traitsIcEERSt13basic_ostreamIcT_ES5_PKc(ptr noundef nonnull align 8 dereferenceable(8) %out, ptr noundef nonnull @.str.3)
  %cmp11.not = icmp eq i32 %n, 0
  br i1 %cmp11.not, label %for.end, label %for.body.preheader

for.body.preheader:                               ; preds = %_ZNK3sat4drat2ppERSoNS_6statusE.exit
  %.b15 = load i1, ptr @_ZN3satL12null_literalE.0, align 4
  %1 = select i1 %.b15, i32 -2, i32 0
  %wide.trip.count = zext i32 %n to i64
  br label %for.body

for.body:                                         ; preds = %for.body.preheader, %for.inc
  %indvars.iv = phi i64 [ 0, %for.body.preheader ], [ %indvars.iv.next, %for.inc ]
  %last.sroa.0.012 = phi i32 [ %1, %for.body.preheader ], [ %last.sroa.0.1, %for.inc ]
  %arrayidx = getelementptr inbounds %"class.sat::literal", ptr %c, i64 %indvars.iv
  %2 = load i32, ptr %arrayidx, align 4
  %cmp.i.not = icmp eq i32 %2, %last.sroa.0.012
  br i1 %cmp.i.not, label %for.inc, label %if.then

if.then:                                          ; preds = %for.body
  %.b = load i1, ptr @_ZN3satL12null_literalE.0, align 4
  %3 = select i1 %.b, i32 -2, i32 0
  %cmp.i.i9 = icmp eq i32 %3, %2
  br i1 %cmp.i.i9, label %if.then.i10, label %if.else.i

if.then.i10:                                      ; preds = %if.then
  %call1.i = tail call noundef nonnull align 8 dereferenceable(8) ptr @_ZStlsISt11char_traitsIcEERSt13basic_ostreamIcT_ES5_PKc(ptr noundef nonnull align 8 dereferenceable(8) %out, ptr noundef nonnull @.str.24)
  br label %_ZN3satlsERSoNS_7literalE.exit

if.else.i:                                        ; preds = %if.then
  %4 = and i32 %2, 1
  %tobool.i.not.i = icmp eq i32 %4, 0
  %cond.i = select i1 %tobool.i.not.i, ptr @.str.25, ptr @.str.15
  %call3.i = tail call noundef nonnull align 8 dereferenceable(8) ptr @_ZStlsISt11char_traitsIcEERSt13basic_ostreamIcT_ES5_PKc(ptr noundef nonnull align 8 dereferenceable(8) %out, ptr noundef nonnull %cond.i)
  %shr.i.i = lshr i32 %2, 1
  %call5.i = tail call noundef nonnull align 8 dereferenceable(8) ptr @_ZNSolsEj(ptr noundef nonnull align 8 dereferenceable(8) %call3.i, i32 noundef %shr.i.i)
  br label %_ZN3satlsERSoNS_7literalE.exit

_ZN3satlsERSoNS_7literalE.exit:                   ; preds = %if.then.i10, %if.else.i
  %call8 = tail call noundef nonnull align 8 dereferenceable(8) ptr @_ZStlsISt11char_traitsIcEERSt13basic_ostreamIcT_ES5_PKc(ptr noundef nonnull align 8 dereferenceable(8) %out, ptr noundef nonnull @.str.3)
  %5 = load i32, ptr %arrayidx, align 4
  br label %for.inc

for.inc:                                          ; preds = %for.body, %_ZN3satlsERSoNS_7literalE.exit
  %last.sroa.0.1 = phi i32 [ %5, %_ZN3satlsERSoNS_7literalE.exit ], [ %last.sroa.0.012, %for.body ]
  %indvars.iv.next = add nuw nsw i64 %indvars.iv, 1
  %exitcond.not = icmp eq i64 %indvars.iv.next, %wide.trip.count
  br i1 %exitcond.not, label %for.end, label %for.body, !llvm.loop !12

for.end:                                          ; preds = %for.inc, %_ZNK3sat4drat2ppERSoNS_6statusE.exit
  %call11 = tail call noundef nonnull align 8 dereferenceable(8) ptr @_ZStlsISt11char_traitsIcEERSt13basic_ostreamIcT_ES5_PKc(ptr noundef nonnull align 8 dereferenceable(8) %out, ptr noundef nonnull @.str.4)
  ret void
}